target datalayout = "e-m:e-p270:32:32-p271:32:32-p272:64:64-i64:64-i128:128-f80:128-n8:16:32:64-S128"
target triple = "x86_64-pc-linux-gnu"

%struct.SDL_Touch = type { i64, i32, i32, i32, ptr, ptr }
%struct.SDL_Finger = type { i64, float, float, float }

; Function Attrs: nounwind uwtable
define hidden ptr @SDL_GetTouchFingers_REAL(i64 noundef %0, ptr noundef %1) #0 {
  %3 = alloca ptr, align 8
  %4 = alloca i64, align 8
  %5 = alloca ptr, align 8
  %6 = alloca ptr, align 8
  %7 = alloca ptr, align 8
  %8 = alloca ptr, align 8
  %9 = alloca i32, align 4
  %10 = alloca i32, align 4
  store i64 %0, ptr %4, align 8
  store ptr %1, ptr %5, align 8
  call void @llvm.lifetime.start.p0(i64 8, ptr %6) #5
  call void @llvm.lifetime.start.p0(i64 8, ptr %7) #5
  %11 = load ptr, ptr %5, align 8
  %12 = icmp ne ptr %11, null
  br i1 %12, label %13, label %15

13:                                               ; preds = %2
  %14 = load ptr, ptr %5, align 8
  store i32 0, ptr %14, align 4
  br label %15

15:                                               ; preds = %13, %2
  call void @llvm.lifetime.start.p0(i64 8, ptr %8) #5
  %16 = load i64, ptr %4, align 8
  %17 = call ptr @SDL_GetTouch(i64 noundef %16)
  store ptr %17, ptr %8, align 8
  %18 = load ptr, ptr %8, align 8
  %19 = icmp ne ptr %18, null
  br i1 %19, label %21, label %20

20:                                               ; preds = %15
  store ptr null, ptr %3, align 8
  store i32 1, ptr %9, align 4
  br label %93

21:                                               ; preds = %15
  %22 = load ptr, ptr %8, align 8
  %23 = getelementptr inbounds nuw %struct.SDL_Touch, ptr %22, i32 0, i32 2
  %24 = load i32, ptr %23, align 4
  %25 = add nsw i32 %24, 1
  %26 = sext i32 %25 to i64
  %27 = mul i64 %26, 8
  %28 = load ptr, ptr %8, align 8
  %29 = getelementptr inbounds nuw %struct.SDL_Touch, ptr %28, i32 0, i32 2
  %30 = load i32, ptr %29, align 4
  %31 = sext i32 %30 to i64
  %32 = mul i64 %31, 24
  %33 = add i64 %27, %32
  %34 = call noalias ptr @SDL_malloc_REAL(i64 noundef %33)
  store ptr %34, ptr %6, align 8
  %35 = load ptr, ptr %6, align 8
  %36 = icmp ne ptr %35, null
  br i1 %36, label %38, label %37

37:                                               ; preds = %21
  store ptr null, ptr %3, align 8
  store i32 1, ptr %9, align 4
  br label %93

38:                                               ; preds = %21
  %39 = load ptr, ptr %6, align 8
  %40 = load ptr, ptr %8, align 8
  %41 = getelementptr inbounds nuw %struct.SDL_Touch, ptr %40, i32 0, i32 2
  %42 = load i32, ptr %41, align 4
  %43 = add nsw i32 %42, 1
  %44 = sext i32 %43 to i64
  %45 = getelementptr inbounds ptr, ptr %39, i64 %44
  store ptr %45, ptr %7, align 8
  call void @llvm.lifetime.start.p0(i64 4, ptr %10) #5
  store i32 0, ptr %10, align 4
  br label %46

46:                                               ; preds = %74, %38
  %47 = load i32, ptr %10, align 4
  %48 = load ptr, ptr %8, align 8
  %49 = getelementptr inbounds nuw %struct.SDL_Touch, ptr %48, i32 0, i32 2
  %50 = load i32, ptr %49, align 4
  %51 = icmp slt i32 %47, %50
  br i1 %51, label %53, label %52

52:                                               ; preds = %46
  store i32 2, ptr %9, align 4
  call void @llvm.lifetime.end.p0(i64 4, ptr %10) #5
  br label %77

53:                                               ; preds = %46
  %54 = load ptr, ptr %7, align 8
  %55 = load i32, ptr %10, align 4
  %56 = sext i32 %55 to i64
  %57 = getelementptr inbounds %struct.SDL_Finger, ptr %54, i64 %56
  %58 = load ptr, ptr %6, align 8
  %59 = load i32, ptr %10, align 4
  %60 = sext i32 %59 to i64
  %61 = getelementptr inbounds ptr, ptr %58, i64 %60
  store ptr %57, ptr %61, align 8
  %62 = load ptr, ptr %6, align 8
  %63 = load i32, ptr %10, align 4
  %64 = sext i32 %63 to i64
  %65 = getelementptr inbounds ptr, ptr %62, i64 %64
  %66 = load ptr, ptr %65, align 8
  %67 = load ptr, ptr %8, align 8
  %68 = getelementptr inbounds nuw %struct.SDL_Touch, ptr %67, i32 0, i32 4
  %69 = load ptr, ptr %68, align 8
  %70 = load i32, ptr %10, align 4
  %71 = sext i32 %70 to i64
  %72 = getelementptr inbounds ptr, ptr %69, i64 %71
  %73 = load ptr, ptr %72, align 8
  call void @llvm.memcpy.p0.p0.i64(ptr align 8 %66, ptr align 8 %73, i64 24, i1 false)
  br label %74

74:                                               ; preds = %53
  %75 = load i32, ptr %10, align 4
  %76 = add nsw i32 %75, 1
  store i32 %76, ptr %10, align 4
  br label %46, !llvm.loop !6

77:                                               ; preds = %52
  %78 = load ptr, ptr %6, align 8
  %79 = load ptr, ptr %8, align 8
  %80 = getelementptr inbounds nuw %struct.SDL_Touch, ptr %79, i32 0, i32 2
  %81 = load i32, ptr %80, align 4
  %82 = sext i32 %81 to i64
  %83 = getelementptr inbounds ptr, ptr %78, i64 %82
  store ptr null, ptr %83, align 8
  %84 = load ptr, ptr %5, align 8
  %85 = icmp ne ptr %84, null
  br i1 %85, label %86, label %91

86:                                               ; preds = %77
  %87 = load ptr, ptr %8, align 8
  %88 = getelementptr inbounds nuw %struct.SDL_Touch, ptr %87, i32 0, i32 2
  %89 = load i32, ptr %88, align 4
  %90 = load ptr, ptr %5, align 8
  store i32 %89, ptr %90, align 4
  br label %91

91:                                               ; preds = %86, %77
  %92 = load ptr, ptr %6, align 8
  store ptr %92, ptr %3, align 8
  store i32 1, ptr %9, align 4
  br label %93

93:                                               ; preds = %91, %37, %20
  call void @llvm.lifetime.end.p0(i64 8, ptr %8) #5
  call void @llvm.lifetime.end.p0(i64 8, ptr %7) #5
  call void @llvm.lifetime.end.p0(i64 8, ptr %6) #5
  %94 = load ptr, ptr %3, align 8
  ret ptr %94
}