; Function Attrs: nounwind uwtable
define hidden ptr @SDL_GetTouchFingers_REAL(i64 noundef %0, ptr noundef writeonly captures(address_is_null) %1) local_unnamed_addr #2 {
  %.not = icmp eq ptr %1, null
  br i1 %.not, label %4, label %3

3:                                                ; preds = %2
  store i32 0, ptr %1, align 4
  br label %4

4:                                                ; preds = %3, %2
  %5 = tail call ptr @SDL_GetTouch(i64 noundef %0)
  %.not31 = icmp eq ptr %5, null
  br i1 %.not31, label %30, label %6

6:                                                ; preds = %4
  %7 = getelementptr inbounds nuw i8, ptr %5, i64 12
  %8 = load i32, ptr %7, align 4
  %9 = add nsw i32 %8, 1
  %10 = sext i32 %9 to i64
  %11 = shl nsw i64 %10, 3
  %12 = sext i32 %8 to i64
  %13 = mul nsw i64 %12, 24
  %14 = add nsw i64 %11, %13
  %15 = tail call noalias ptr @SDL_malloc_REAL(i64 noundef %14) #7
  %.not32 = icmp eq ptr %15, null
  br i1 %.not32, label %30, label %16

16:                                               ; preds = %6
  %17 = load i32, ptr %7, align 4
  %18 = sext i32 %17 to i64
  %19 = getelementptr ptr, ptr %15, i64 %18
  %20 = getelementptr i8, ptr %19, i64 8
  %21 = icmp sgt i32 %17, 0
  br i1 %21, label %.lr.ph, label %._crit_edge

.lr.ph:                                           ; preds = %16
  %22 = getelementptr inbounds nuw i8, ptr %5, i64 24
  %.pre = load ptr, ptr %22, align 8
  br label %23

._crit_edge:                                      ; preds = %23, %16
  store ptr null, ptr %19, align 8
  br i1 %.not, label %30, label %29

23:                                               ; preds = %.lr.ph, %23
  %indvars.iv = phi i64 [ 0, %.lr.ph ], [ %indvars.iv.next, %23 ]
  %24 = getelementptr inbounds nuw %struct.SDL_Finger, ptr %20, i64 %indvars.iv
  %25 = getelementptr inbounds nuw ptr, ptr %15, i64 %indvars.iv
  store ptr %24, ptr %25, align 8
  %26 = getelementptr inbounds nuw ptr, ptr %.pre, i64 %indvars.iv
  %27 = load ptr, ptr %26, align 8
  tail call void @llvm.memcpy.p0.p0.i64(ptr noundef nonnull align 8 dereferenceable(24) %24, ptr noundef nonnull align 8 dereferenceable(24) %27, i64 24, i1 false)
  %indvars.iv.next = add nuw nsw i64 %indvars.iv, 1
  %28 = icmp slt i64 %indvars.iv.next, %18
  br i1 %28, label %23, label %._crit_edge, !llvm.loop !6

29:                                               ; preds = %._crit_edge
  store i32 %17, ptr %1, align 4
  br label %30

30:                                               ; preds = %._crit_edge, %29, %6, %4
  %.026 = phi ptr [ null, %4 ], [ null, %6 ], [ %15, %29 ], [ %15, %._crit_edge ]
  ret ptr %.026
}